; Function Attrs: mustprogress uwtable
define hidden noundef zeroext i1 @_ZNK3ue217ComponentSequence24checkEmbeddedStartAnchorEb(ptr noundef nonnull readonly align 8 captures(none) dereferenceable(88) %0, i1 noundef zeroext %1) unnamed_addr #0 align 2 {
  %3 = getelementptr inbounds nuw i8, ptr %0, i64 16
  %4 = load ptr, ptr %3, align 8
  %5 = getelementptr inbounds nuw i8, ptr %0, i64 24
  %6 = load ptr, ptr %5, align 8
  %.not8 = icmp eq ptr %4, %6
  br i1 %.not8, label %._crit_edge, label %.lr.ph

._crit_edge:                                      ; preds = %.lr.ph, %2
  %.0.in.lcssa = phi i1 [ %1, %2 ], [ %11, %.lr.ph ]
  ret i1 %.0.in.lcssa

.lr.ph:                                           ; preds = %2, %.lr.ph
  %.0.in10 = phi i1 [ %11, %.lr.ph ], [ %1, %2 ]
  %.sroa.05.09 = phi ptr [ %12, %.lr.ph ], [ %4, %2 ]
  %7 = load ptr, ptr %.sroa.05.09, align 8
  %8 = load ptr, ptr %7, align 8
  %9 = getelementptr inbounds nuw i8, ptr %8, i64 104
  %10 = load ptr, ptr %9, align 8
  %11 = tail call noundef zeroext i1 %10(ptr noundef nonnull align 8 dereferenceable(16) %7, i1 noundef zeroext %.0.in10)
  %12 = getelementptr inbounds nuw i8, ptr %.sroa.05.09, i64 8
  %.not = icmp eq ptr %12, %6
  br i1 %.not, label %._crit_edge, label %.lr.ph
}